target datalayout = "e-m:e-p270:32:32-p271:32:32-p272:64:64-i64:64-i128:128-f80:128-n8:16:32:64-S128"
target triple = "x86_64-pc-linux-gnu"

%struct.read_file_data = type { i32, i64, ptr, i32, i8, i32, %union.anon }
%union.anon = type { [1 x i32] }

@.str = private unnamed_addr constant [1 x i8] zeroinitializer, align 1
@.str.1 = private unnamed_addr constant [10 x i8] c"No memory\00", align 1

; Function Attrs: nounwind uwtable
define dso_local i32 @archive_read_open_filenames(ptr noundef %0, ptr noundef %1, i64 noundef %2) #0 {
  %4 = alloca i32, align 4
  %5 = alloca ptr, align 8
  %6 = alloca ptr, align 8
  %7 = alloca i64, align 8
  %8 = alloca ptr, align 8
  %9 = alloca ptr, align 8
  store ptr %0, ptr %5, align 8
  store ptr %1, ptr %6, align 8
  store i64 %2, ptr %7, align 8
  store ptr null, ptr %9, align 8
  %10 = load ptr, ptr %6, align 8
  %11 = icmp ne ptr %10, null
  br i1 %11, label %12, label %16

12:                                               ; preds = %3
  %13 = load ptr, ptr %6, align 8
  %14 = getelementptr inbounds ptr, ptr %13, i32 1
  store ptr %14, ptr %6, align 8
  %15 = load ptr, ptr %13, align 8
  store ptr %15, ptr %9, align 8
  br label %16

16:                                               ; preds = %12, %3
  %17 = load ptr, ptr %5, align 8
  call void @archive_clear_error(ptr noundef %17)
  br label %18

18:                                               ; preds = %84, %16
  %19 = load ptr, ptr %9, align 8
  %20 = icmp eq ptr %19, null
  br i1 %20, label %21, label %22

21:                                               ; preds = %18
  store ptr @.str, ptr %9, align 8
  br label %22

22:                                               ; preds = %21, %18
  %23 = load ptr, ptr %9, align 8
  %24 = call i64 @strlen(ptr noundef %23) #7
  %25 = add i64 40, %24
  %26 = call noalias ptr @calloc(i64 noundef 1, i64 noundef %25) #8
  store ptr %26, ptr %8, align 8
  %27 = load ptr, ptr %8, align 8
  %28 = icmp eq ptr %27, null
  br i1 %28, label %29, label %30

29:                                               ; preds = %22
  br label %101

30:                                               ; preds = %22
  %31 = load ptr, ptr %8, align 8
  %32 = getelementptr inbounds %struct.read_file_data, ptr %31, i32 0, i32 6
  %33 = getelementptr inbounds [1 x i8], ptr %32, i64 0, i64 0
  %34 = load ptr, ptr %9, align 8
  %35 = call ptr @strcpy(ptr noundef %33, ptr noundef %34) #9
  %36 = load i64, ptr %7, align 8
  %37 = load ptr, ptr %8, align 8
  %38 = getelementptr inbounds %struct.read_file_data, ptr %37, i32 0, i32 1
  store i64 %36, ptr %38, align 8
  %39 = load ptr, ptr %8, align 8
  %40 = getelementptr inbounds %struct.read_file_data, ptr %39, i32 0, i32 0
  store i32 -1, ptr %40, align 8
  %41 = load ptr, ptr %8, align 8
  %42 = getelementptr inbounds %struct.read_file_data, ptr %41, i32 0, i32 2
  store ptr null, ptr %42, align 8
  %43 = load ptr, ptr %8, align 8
  %44 = getelementptr inbounds %struct.read_file_data, ptr %43, i32 0, i32 4
  store i8 0, ptr %44, align 4
  %45 = load ptr, ptr %8, align 8
  %46 = getelementptr inbounds %struct.read_file_data, ptr %45, i32 0, i32 3
  store i32 0, ptr %46, align 8
  %47 = load ptr, ptr %9, align 8
  %48 = icmp eq ptr %47, null
  br i1 %48, label %55, label %49

49:                                               ; preds = %30
  %50 = load ptr, ptr %9, align 8
  %51 = getelementptr inbounds i8, ptr %50, i64 0
  %52 = load i8, ptr %51, align 1
  %53 = sext i8 %52 to i32
  %54 = icmp eq i32 %53, 0
  br i1 %54, label %55, label %58

55:                                               ; preds = %49, %30
  %56 = load ptr, ptr %8, align 8
  %57 = getelementptr inbounds %struct.read_file_data, ptr %56, i32 0, i32 5
  store i32 0, ptr %57, align 8
  br label %61

58:                                               ; preds = %49
  %59 = load ptr, ptr %8, align 8
  %60 = getelementptr inbounds %struct.read_file_data, ptr %59, i32 0, i32 5
  store i32 1, ptr %60, align 8
  br label %61

61:                                               ; preds = %58, %55
  %62 = load ptr, ptr %5, align 8
  %63 = load ptr, ptr %8, align 8
  %64 = call i32 @archive_read_append_callback_data(ptr noundef %62, ptr noundef %63)
  %65 = icmp ne i32 %64, 0
  br i1 %65, label %66, label %67

66:                                               ; preds = %61
  store i32 -30, ptr %4, align 4
  br label %103

67:                                               ; preds = %61
  %68 = load ptr, ptr %6, align 8
  %69 = icmp eq ptr %68, null
  br i1 %69, label %70, label %71

70:                                               ; preds = %67
  br label %86

71:                                               ; preds = %67
  %72 = load ptr, ptr %6, align 8
  %73 = getelementptr inbounds ptr, ptr %72, i32 1
  store ptr %73, ptr %6, align 8
  %74 = load ptr, ptr %72, align 8
  store ptr %74, ptr %9, align 8
  br label %75

75:                                               ; preds = %71
  %76 = load ptr, ptr %9, align 8
  %77 = icmp ne ptr %76, null
  br i1 %77, label %78, label %84

78:                                               ; preds = %75
  %79 = load ptr, ptr %9, align 8
  %80 = getelementptr inbounds i8, ptr %79, i64 0
  %81 = load i8, ptr %80, align 1
  %82 = sext i8 %81 to i32
  %83 = icmp ne i32 %82, 0
  br label %84

84:                                               ; preds = %78, %75
  %85 = phi i1 [ false, %75 ], [ %83, %78 ]
  br i1 %85, label %18, label %86, !llvm.loop !5

86:                                               ; preds = %84, %70
  %87 = load ptr, ptr %5, align 8
  %88 = call i32 @archive_read_set_open_callback(ptr noundef %87, ptr noundef @file_open)
  %89 = load ptr, ptr %5, align 8
  %90 = call i32 @archive_read_set_read_callback(ptr noundef %89, ptr noundef @file_read)
  %91 = load ptr, ptr %5, align 8
  %92 = call i32 @archive_read_set_skip_callback(ptr noundef %91, ptr noundef @file_skip)
  %93 = load ptr, ptr %5, align 8
  %94 = call i32 @archive_read_set_close_callback(ptr noundef %93, ptr noundef @file_close)
  %95 = load ptr, ptr %5, align 8
  %96 = call i32 @archive_read_set_switch_callback(ptr noundef %95, ptr noundef @file_switch)
  %97 = load ptr, ptr %5, align 8
  %98 = call i32 @archive_read_set_seek_callback(ptr noundef %97, ptr noundef @file_seek)
  %99 = load ptr, ptr %5, align 8
  %100 = call i32 @archive_read_open1(ptr noundef %99)
  store i32 %100, ptr %4, align 4
  br label %103

101:                                              ; preds = %29
  %102 = load ptr, ptr %5, align 8
  call void (ptr, i32, ptr, ...) @archive_set_error(ptr noundef %102, i32 noundef 12, ptr noundef @.str.1)
  store i32 -30, ptr %4, align 4
  br label %103

103:                                              ; preds = %101, %86, %66
  %104 = load i32, ptr %4, align 4
  ret i32 %104
}