; Function Attrs: nounwind uwtable
define dso_local i32 @archive_read_open_filenames(ptr noundef %0, ptr noundef readonly %1, i64 noundef %2) local_unnamed_addr #0 {
  %.not = icmp eq ptr %1, null
  br i1 %.not, label %7, label %4

4:                                                ; preds = %3
  %5 = getelementptr inbounds nuw i8, ptr %1, i64 8
  %6 = load ptr, ptr %1, align 8
  br label %7

7:                                                ; preds = %4, %3
  %.033 = phi ptr [ %5, %4 ], [ null, %3 ]
  %.0 = phi ptr [ %6, %4 ], [ null, %3 ]
  tail call void @archive_clear_error(ptr noundef %0) #14
  br label %8

8:                                                ; preds = %29, %7
  %.134 = phi ptr [ %.033, %7 ], [ %30, %29 ]
  %.1 = phi ptr [ %.0, %7 ], [ %28, %29 ]
  %9 = icmp eq ptr %.1, null
  %spec.store.select = select i1 %9, ptr @.str, ptr %.1
  %10 = tail call i64 @strlen(ptr noundef nonnull dereferenceable(1) %spec.store.select) #15
  %11 = add i64 %10, 40
  %12 = tail call noalias ptr @calloc(i64 noundef 1, i64 noundef %11) #16
  %13 = icmp eq ptr %12, null
  br i1 %13, label %39, label %14

14:                                               ; preds = %8
  %15 = getelementptr inbounds nuw i8, ptr %12, i64 36
  %16 = tail call ptr @strcpy(ptr noundef nonnull dereferenceable(1) %15, ptr noundef nonnull dereferenceable(1) %spec.store.select) #14
  %17 = getelementptr inbounds nuw i8, ptr %12, i64 8
  store i64 %2, ptr %17, align 8
  store i32 -1, ptr %12, align 8
  %18 = getelementptr inbounds nuw i8, ptr %12, i64 16
  store ptr null, ptr %18, align 8
  %19 = getelementptr inbounds nuw i8, ptr %12, i64 28
  store i8 0, ptr %19, align 4
  %20 = getelementptr inbounds nuw i8, ptr %12, i64 24
  store i32 0, ptr %20, align 8
  %21 = load i8, ptr %spec.store.select, align 1
  %22 = icmp ne i8 %21, 0
  %spec.select = zext i1 %22 to i32
  %23 = getelementptr inbounds nuw i8, ptr %12, i64 32
  store i32 %spec.select, ptr %23, align 8
  %24 = tail call i32 @archive_read_append_callback_data(ptr noundef %0, ptr noundef nonnull %12) #14
  %.not39 = icmp eq i32 %24, 0
  br i1 %.not39, label %25, label %.loopexit

25:                                               ; preds = %14
  %26 = icmp eq ptr %.134, null
  br i1 %26, label %.critedge, label %27

27:                                               ; preds = %25
  %28 = load ptr, ptr %.134, align 8
  %.not40 = icmp eq ptr %28, null
  br i1 %.not40, label %.critedge, label %29

29:                                               ; preds = %27
  %30 = getelementptr inbounds nuw i8, ptr %.134, i64 8
  %31 = load i8, ptr %28, align 1
  %.not41 = icmp eq i8 %31, 0
  br i1 %.not41, label %.critedge, label %8, !llvm.loop !5

.critedge:                                        ; preds = %27, %25, %29
  %32 = tail call i32 @archive_read_set_open_callback(ptr noundef %0, ptr noundef nonnull @file_open) #14
  %33 = tail call i32 @archive_read_set_read_callback(ptr noundef %0, ptr noundef nonnull @file_read) #14
  %34 = tail call i32 @archive_read_set_skip_callback(ptr noundef %0, ptr noundef nonnull @file_skip) #14
  %35 = tail call i32 @archive_read_set_close_callback(ptr noundef %0, ptr noundef nonnull @file_close) #14
  %36 = tail call i32 @archive_read_set_switch_callback(ptr noundef %0, ptr noundef nonnull @file_switch) #14
  %37 = tail call i32 @archive_read_set_seek_callback(ptr noundef %0, ptr noundef nonnull @file_seek) #14
  %38 = tail call i32 @archive_read_open1(ptr noundef %0) #14
  br label %.loopexit

39:                                               ; preds = %8
  tail call void (ptr, i32, ptr, ...) @archive_set_error(ptr noundef %0, i32 noundef 12, ptr noundef nonnull @.str.1) #14
  br label %.loopexit

.loopexit:                                        ; preds = %14, %39, %.critedge
  %.032 = phi i32 [ -30, %39 ], [ %38, %.critedge ], [ -30, %14 ]
  ret i32 %.032
}